target datalayout = "e-m:e-p270:32:32-p271:32:32-p272:64:64-i64:64-i128:128-f80:128-n8:16:32:64-S128"
target triple = "x86_64-unknown-linux-gnu"

%struct.clock_event_device = type { ptr, ptr, ptr, i64, i64, i64, i32, i32, i32, i32, i64, ptr, ptr, ptr, ptr, ptr, ptr, ptr, ptr, i64, i64, ptr, i32, i32, i32, ptr, %struct.list_head, ptr, [48 x i8] }
%struct.list_head = type { ptr, ptr }
%struct.cpuinfo_x86 = type { i8, i8, i8, i8, i32, [5 x i32], i8, i8, i8, i32, i32, %union.anon, [16 x i8], [64 x i8], %struct.cpuinfo_topology, i32, i32, i32, i32, i32, i32, i64, i64, i16, i16, i16, i16, i8, i32, i8, i8 }
%union.anon = type { i64, [88 x i8] }
%struct.cpuinfo_topology = type { i32, i32, i32, i32, i32, i32, i32, i32, i32, i32 }

@i8253_clockevent = external dso_local global %struct.clock_event_device, align 64
@global_clock_event = dso_local local_unnamed_addr global ptr null, align 8
@boot_cpu_data = external dso_local global %struct.cpuinfo_x86, align 8

; Function Attrs: cold fn_ret_thunk_extern nounwind null_pointer_is_valid optsize
define dso_local noundef zeroext i1 @pit_timer_init() local_unnamed_addr #0 section ".init.text" align 16 {
  %1 = load volatile i64, ptr getelementptr inbounds (%struct.cpuinfo_x86, ptr @boot_cpu_data, i64 0, i32 11, i32 0), align 8
  %2 = and i64 %1, 16
  %3 = icmp eq i64 %2, 0
  br i1 %3, label %6, label %4

4:                                                ; preds = %0
  %5 = tail call zeroext i1 @apic_needs_pit() #2
  br label %6

6:                                                ; preds = %4, %0
  %7 = phi i1 [ %5, %4 ], [ true, %0 ]
  br i1 %7, label %8, label %9

8:                                                ; preds = %6
  tail call void @clockevent_i8253_init(i1 noundef zeroext true) #2
  store ptr @i8253_clockevent, ptr @global_clock_event, align 8
  br label %9

9:                                                ; preds = %8, %6
  ret i1 %7
}

; Function Attrs: null_pointer_is_valid
declare dso_local void @clockevent_i8253_init(i1 noundef zeroext) local_unnamed_addr #1

; Function Attrs: null_pointer_is_valid
declare dso_local zeroext i1 @apic_needs_pit() local_unnamed_addr #1


!llvm.module.flags = !{!0, !1, !2, !3, !4}

!0 = !{i32 1, !"wchar_size", i32 2}
!1 = !{i32 8, !"cf-protection-branch", i32 1}
!2 = !{i32 4, !"function_return_thunk_extern", i32 1}
!3 = !{i32 4, !"indirect_branch_cs_prefix", i32 1}
!4 = !{i32 4, !"SkipRaxSetup", i32 1}
